target datalayout = "e-m:e-p270:32:32-p271:32:32-p272:64:64-i64:64-i128:128-f80:128-n8:16:32:64-S128"
target triple = "x86_64-pc-linux-gnu"

%struct.Vec_Str_t_ = type { i32, i32, ptr }
%struct.Vec_Int_t_ = type { i32, i32, ptr }
%struct.Acb_Ntk_t_ = type { ptr, i32, i32, i32, i8, %struct.Vec_Int_t_, %struct.Vec_Int_t_, %struct.Vec_Int_t_, %struct.Vec_Int_t_, i32, i32, i32, i32, i32, %struct.Vec_Str_t_, %struct.Vec_Int_t_, %struct.Vec_Int_t_, %struct.Vec_Int_t_, %struct.Vec_Int_t_, %struct.Vec_Int_t_, %struct.Vec_Wrd_t_, %struct.Vec_Int_t_, %struct.Vec_Int_t_, %struct.Vec_Int_t_, %struct.Vec_Int_t_, %struct.Vec_Int_t_, %struct.Vec_Int_t_, %struct.Vec_Int_t_, %struct.Vec_Int_t_, %struct.Vec_Int_t_, %struct.Vec_Int_t_, %struct.Vec_Int_t_, %struct.Vec_Int_t_, %struct.Vec_Flt_t_, %struct.Vec_Wec_t_, %struct.Vec_Wec_t_, %struct.Vec_Str_t_, %struct.Vec_Int_t_, ptr, %struct.Vec_Int_t_, %struct.Vec_Int_t_, %struct.Vec_Int_t_, %struct.Vec_Int_t_ }
%struct.Vec_Wrd_t_ = type { i32, i32, ptr }
%struct.Vec_Flt_t_ = type { i32, i32, ptr }
%struct.Vec_Wec_t_ = type { i32, i32, ptr }

; Function Attrs: nounwind uwtable
define internal void @Vec_IntGrow(ptr noundef %0, i32 noundef %1) #0 {
  %3 = alloca ptr, align 8
  %4 = alloca i32, align 4
  store ptr %0, ptr %3, align 8
  store i32 %1, ptr %4, align 4
  %5 = load ptr, ptr %3, align 8
  %6 = getelementptr inbounds %struct.Vec_Int_t_, ptr %5, i32 0, i32 0
  %7 = load i32, ptr %6, align 8
  %8 = load i32, ptr %4, align 4
  %9 = icmp sge i32 %7, %8
  br i1 %9, label %10, label %11

10:                                               ; preds = %2
  br label %36

11:                                               ; preds = %2
  %12 = load ptr, ptr %3, align 8
  %13 = getelementptr inbounds %struct.Vec_Int_t_, ptr %12, i32 0, i32 2
  %14 = load ptr, ptr %13, align 8
  %15 = icmp ne ptr %14, null
  br i1 %15, label %16, label %24

16:                                               ; preds = %11
  %17 = load ptr, ptr %3, align 8
  %18 = getelementptr inbounds %struct.Vec_Int_t_, ptr %17, i32 0, i32 2
  %19 = load ptr, ptr %18, align 8
  %20 = load i32, ptr %4, align 4
  %21 = sext i32 %20 to i64
  %22 = mul i64 4, %21
  %23 = call ptr @realloc(ptr noundef %19, i64 noundef %22) #14
  br label %29

24:                                               ; preds = %11
  %25 = load i32, ptr %4, align 4
  %26 = sext i32 %25 to i64
  %27 = mul i64 4, %26
  %28 = call noalias ptr @malloc(i64 noundef %27) #11
  br label %29

29:                                               ; preds = %24, %16
  %30 = phi ptr [ %23, %16 ], [ %28, %24 ]
  %31 = load ptr, ptr %3, align 8
  %32 = getelementptr inbounds %struct.Vec_Int_t_, ptr %31, i32 0, i32 2
  store ptr %30, ptr %32, align 8
  %33 = load i32, ptr %4, align 4
  %34 = load ptr, ptr %3, align 8
  %35 = getelementptr inbounds %struct.Vec_Int_t_, ptr %34, i32 0, i32 0
  store i32 %33, ptr %35, align 8
  br label %36

36:                                               ; preds = %29, %10
  ret void
}

; Function Attrs: nounwind uwtable
define internal ptr @Vec_IntEntryP(ptr noundef %0, i32 noundef %1) #0 {
  %3 = alloca ptr, align 8
  %4 = alloca i32, align 4
  store ptr %0, ptr %3, align 8
  store i32 %1, ptr %4, align 4
  %5 = load ptr, ptr %3, align 8
  %6 = getelementptr inbounds %struct.Vec_Int_t_, ptr %5, i32 0, i32 2
  %7 = load ptr, ptr %6, align 8
  %8 = load i32, ptr %4, align 4
  %9 = sext i32 %8 to i64
  %10 = getelementptr inbounds i32, ptr %7, i64 %9
  ret ptr %10
}

; Function Attrs: nounwind uwtable
define internal i32 @Acb_ObjFanOffset(ptr noundef %0, i32 noundef %1) #0 {
  %3 = alloca ptr, align 8
  %4 = alloca i32, align 4
  store ptr %0, ptr %3, align 8
  store i32 %1, ptr %4, align 4
  %5 = load ptr, ptr %3, align 8
  %6 = getelementptr inbounds %struct.Acb_Ntk_t_, ptr %5, i32 0, i32 15
  %7 = load i32, ptr %4, align 4
  %8 = call i32 @Vec_IntEntry(ptr noundef %6, i32 noundef %7)
  ret i32 %8
}

; Function Attrs: nounwind uwtable
define internal void @Vec_IntFill(ptr noundef %0, i32 noundef %1, i32 noundef %2) #0 {
  %4 = alloca ptr, align 8
  %5 = alloca i32, align 4
  %6 = alloca i32, align 4
  %7 = alloca i32, align 4
  store ptr %0, ptr %4, align 8
  store i32 %1, ptr %5, align 4
  store i32 %2, ptr %6, align 4
  %8 = load ptr, ptr %4, align 8
  %9 = load i32, ptr %5, align 4
  call void @Vec_IntGrow(ptr noundef %8, i32 noundef %9)
  store i32 0, ptr %7, align 4
  br label %10

10:                                               ; preds = %22, %3
  %11 = load i32, ptr %7, align 4
  %12 = load i32, ptr %5, align 4
  %13 = icmp slt i32 %11, %12
  br i1 %13, label %14, label %25

14:                                               ; preds = %10
  %15 = load i32, ptr %6, align 4
  %16 = load ptr, ptr %4, align 8
  %17 = getelementptr inbounds %struct.Vec_Int_t_, ptr %16, i32 0, i32 2
  %18 = load ptr, ptr %17, align 8
  %19 = load i32, ptr %7, align 4
  %20 = sext i32 %19 to i64
  %21 = getelementptr inbounds i32, ptr %18, i64 %20
  store i32 %15, ptr %21, align 4
  br label %22

22:                                               ; preds = %14
  %23 = load i32, ptr %7, align 4
  %24 = add nsw i32 %23, 1
  store i32 %24, ptr %7, align 4
  br label %10, !llvm.loop !216

25:                                               ; preds = %10
  %26 = load i32, ptr %5, align 4
  %27 = load ptr, ptr %4, align 8
  %28 = getelementptr inbounds %struct.Vec_Int_t_, ptr %27, i32 0, i32 1
  store i32 %26, ptr %28, align 4
  ret void
}

; Function Attrs: nounwind uwtable
define internal i32 @Vec_StrCap(ptr noundef %0) #0 {
  %2 = alloca ptr, align 8
  store ptr %0, ptr %2, align 8
  %3 = load ptr, ptr %2, align 8
  %4 = getelementptr inbounds %struct.Vec_Str_t_, ptr %3, i32 0, i32 0
  %5 = load i32, ptr %4, align 8
  ret i32 %5
}

; Function Attrs: nounwind uwtable
define internal ptr @Acb_ObjFanins(ptr noundef %0, i32 noundef %1) #0 {
  %3 = alloca ptr, align 8
  %4 = alloca i32, align 4
  store ptr %0, ptr %3, align 8
  store i32 %1, ptr %4, align 4
  %5 = load ptr, ptr %3, align 8
  %6 = getelementptr inbounds %struct.Acb_Ntk_t_, ptr %5, i32 0, i32 16
  %7 = load ptr, ptr %3, align 8
  %8 = load i32, ptr %4, align 4
  %9 = call i32 @Acb_ObjFanOffset(ptr noundef %7, i32 noundef %8)
  %10 = call ptr @Vec_IntEntryP(ptr noundef %6, i32 noundef %9)
  ret ptr %10
}

; Function Attrs: nounwind uwtable
define internal void @Acb_NtkCleanObjTravs(ptr noundef %0) #0 {
  %2 = alloca ptr, align 8
  store ptr %0, ptr %2, align 8
  %3 = load ptr, ptr %2, align 8
  %4 = getelementptr inbounds %struct.Acb_Ntk_t_, ptr %3, i32 0, i32 23
  %5 = load ptr, ptr %2, align 8
  %6 = getelementptr inbounds %struct.Acb_Ntk_t_, ptr %5, i32 0, i32 14
  %7 = call i32 @Vec_StrCap(ptr noundef %6)
  call void @Vec_IntFill(ptr noundef %4, i32 noundef %7, i32 noundef 0)
  ret void
}

; Function Attrs: nounwind uwtable
define internal i32 @Acb_NtkHasObjTravs(ptr noundef %0) #0 {
  %2 = alloca ptr, align 8
  store ptr %0, ptr %2, align 8
  %3 = load ptr, ptr %2, align 8
  %4 = getelementptr inbounds %struct.Acb_Ntk_t_, ptr %3, i32 0, i32 23
  %5 = call i32 @Vec_IntSize(ptr noundef %4)
  %6 = icmp sgt i32 %5, 0
  %7 = zext i1 %6 to i32
  ret i32 %7
}

; Function Attrs: nounwind uwtable
define internal void @Vec_IntSort(ptr noundef %0, i32 noundef %1) #0 {
  %3 = alloca ptr, align 8
  %4 = alloca i32, align 4
  store ptr %0, ptr %3, align 8
  store i32 %1, ptr %4, align 4
  %5 = load i32, ptr %4, align 4
  %6 = icmp ne i32 %5, 0
  br i1 %6, label %7, label %15

7:                                                ; preds = %2
  %8 = load ptr, ptr %3, align 8
  %9 = getelementptr inbounds %struct.Vec_Int_t_, ptr %8, i32 0, i32 2
  %10 = load ptr, ptr %9, align 8
  %11 = load ptr, ptr %3, align 8
  %12 = getelementptr inbounds %struct.Vec_Int_t_, ptr %11, i32 0, i32 1
  %13 = load i32, ptr %12, align 4
  %14 = sext i32 %13 to i64
  call void @qsort(ptr noundef %10, i64 noundef %14, i64 noundef 4, ptr noundef @Vec_IntSortCompare2)
  br label %23

15:                                               ; preds = %2
  %16 = load ptr, ptr %3, align 8
  %17 = getelementptr inbounds %struct.Vec_Int_t_, ptr %16, i32 0, i32 2
  %18 = load ptr, ptr %17, align 8
  %19 = load ptr, ptr %3, align 8
  %20 = getelementptr inbounds %struct.Vec_Int_t_, ptr %19, i32 0, i32 1
  %21 = load i32, ptr %20, align 4
  %22 = sext i32 %21 to i64
  call void @qsort(ptr noundef %18, i64 noundef %22, i64 noundef 4, ptr noundef @Vec_IntSortCompare1)
  br label %23

23:                                               ; preds = %15, %7
  ret void
}

; Function Attrs: nounwind uwtable
define internal i32 @Acb_ObjFanin(ptr noundef %0, i32 noundef %1, i32 noundef %2) #0 {
  %4 = alloca ptr, align 8
  %5 = alloca i32, align 4
  %6 = alloca i32, align 4
  store ptr %0, ptr %4, align 8
  store i32 %1, ptr %5, align 4
  store i32 %2, ptr %6, align 4
  %7 = load ptr, ptr %4, align 8
  %8 = load i32, ptr %5, align 4
  %9 = call ptr @Acb_ObjFanins(ptr noundef %7, i32 noundef %8)
  %10 = load i32, ptr %6, align 4
  %11 = add nsw i32 %10, 1
  %12 = sext i32 %11 to i64
  %13 = getelementptr inbounds i32, ptr %9, i64 %12
  %14 = load i32, ptr %13, align 4
  ret i32 %14
}

; Function Attrs: nounwind uwtable
define internal i32 @Acb_NtkCo(ptr noundef %0, i32 noundef %1) #0 {
  %3 = alloca ptr, align 8
  %4 = alloca i32, align 4
  store ptr %0, ptr %3, align 8
  store i32 %1, ptr %4, align 4
  %5 = load ptr, ptr %3, align 8
  %6 = getelementptr inbounds %struct.Acb_Ntk_t_, ptr %5, i32 0, i32 6
  %7 = load i32, ptr %4, align 4
  %8 = call i32 @Vec_IntEntry(ptr noundef %6, i32 noundef %7)
  ret i32 %8
}

; Function Attrs: nounwind uwtable
define internal i32 @Vec_IntEntry(ptr noundef %0, i32 noundef %1) #0 {
  %3 = alloca ptr, align 8
  %4 = alloca i32, align 4
  store ptr %0, ptr %3, align 8
  store i32 %1, ptr %4, align 4
  %5 = load ptr, ptr %3, align 8
  %6 = getelementptr inbounds %struct.Vec_Int_t_, ptr %5, i32 0, i32 2
  %7 = load ptr, ptr %6, align 8
  %8 = load i32, ptr %4, align 4
  %9 = sext i32 %8 to i64
  %10 = getelementptr inbounds i32, ptr %7, i64 %9
  %11 = load i32, ptr %10, align 4
  ret i32 %11
}

; Function Attrs: nounwind uwtable
define internal i32 @Vec_IntSize(ptr noundef %0) #0 {
  %2 = alloca ptr, align 8
  store ptr %0, ptr %2, align 8
  %3 = load ptr, ptr %2, align 8
  %4 = getelementptr inbounds %struct.Vec_Int_t_, ptr %3, i32 0, i32 1
  %5 = load i32, ptr %4, align 4
  ret i32 %5
}

; Function Attrs: nounwind uwtable
define internal void @Acb_NtkIncTravId(ptr noundef %0) #0 {
  %2 = alloca ptr, align 8
  store ptr %0, ptr %2, align 8
  %3 = load ptr, ptr %2, align 8
  %4 = call i32 @Acb_NtkHasObjTravs(ptr noundef %3)
  %5 = icmp ne i32 %4, 0
  br i1 %5, label %8, label %6

6:                                                ; preds = %1
  %7 = load ptr, ptr %2, align 8
  call void @Acb_NtkCleanObjTravs(ptr noundef %7)
  br label %8

8:                                                ; preds = %6, %1
  %9 = load ptr, ptr %2, align 8
  %10 = getelementptr inbounds %struct.Acb_Ntk_t_, ptr %9, i32 0, i32 11
  %11 = load i32, ptr %10, align 8
  %12 = add nsw i32 %11, 1
  store i32 %12, ptr %10, align 8
  ret void
}

; Function Attrs: nounwind uwtable
define internal ptr @Vec_IntAlloc(i32 noundef %0) #0 {
  %2 = alloca i32, align 4
  %3 = alloca ptr, align 8
  store i32 %0, ptr %2, align 4
  %4 = call noalias ptr @malloc(i64 noundef 16) #11
  store ptr %4, ptr %3, align 8
  %5 = load i32, ptr %2, align 4
  %6 = icmp sgt i32 %5, 0
  br i1 %6, label %7, label %11

7:                                                ; preds = %1
  %8 = load i32, ptr %2, align 4
  %9 = icmp slt i32 %8, 16
  br i1 %9, label %10, label %11

10:                                               ; preds = %7
  store i32 16, ptr %2, align 4
  br label %11

11:                                               ; preds = %10, %7, %1
  %12 = load ptr, ptr %3, align 8
  %13 = getelementptr inbounds %struct.Vec_Int_t_, ptr %12, i32 0, i32 1
  store i32 0, ptr %13, align 4
  %14 = load i32, ptr %2, align 4
  %15 = load ptr, ptr %3, align 8
  %16 = getelementptr inbounds %struct.Vec_Int_t_, ptr %15, i32 0, i32 0
  store i32 %14, ptr %16, align 8
  %17 = load ptr, ptr %3, align 8
  %18 = getelementptr inbounds %struct.Vec_Int_t_, ptr %17, i32 0, i32 0
  %19 = load i32, ptr %18, align 8
  %20 = icmp ne i32 %19, 0
  br i1 %20, label %21, label %28

21:                                               ; preds = %11
  %22 = load ptr, ptr %3, align 8
  %23 = getelementptr inbounds %struct.Vec_Int_t_, ptr %22, i32 0, i32 0
  %24 = load i32, ptr %23, align 8
  %25 = sext i32 %24 to i64
  %26 = mul i64 4, %25
  %27 = call noalias ptr @malloc(i64 noundef %26) #11
  br label %29

28:                                               ; preds = %11
  br label %29

29:                                               ; preds = %28, %21
  %30 = phi ptr [ %27, %21 ], [ null, %28 ]
  %31 = load ptr, ptr %3, align 8
  %32 = getelementptr inbounds %struct.Vec_Int_t_, ptr %31, i32 0, i32 2
  store ptr %30, ptr %32, align 8
  %33 = load ptr, ptr %3, align 8
  ret ptr %33
}

; Function Attrs: nounwind uwtable
define ptr @Acb_NtkFindSupp(ptr noundef %0, ptr noundef %1) #0 {
  %3 = alloca ptr, align 8
  %4 = alloca ptr, align 8
  %5 = alloca i32, align 4
  %6 = alloca i32, align 4
  %7 = alloca ptr, align 8
  store ptr %0, ptr %3, align 8
  store ptr %1, ptr %4, align 8
  %8 = call ptr @Vec_IntAlloc(i32 noundef 1000)
  store ptr %8, ptr %7, align 8
  %9 = load ptr, ptr %3, align 8
  call void @Acb_NtkIncTravId(ptr noundef %9)
  store i32 0, ptr %5, align 4
  br label %10

10:                                               ; preds = %29, %2
  %11 = load i32, ptr %5, align 4
  %12 = load ptr, ptr %4, align 8
  %13 = call i32 @Vec_IntSize(ptr noundef %12)
  %14 = icmp slt i32 %11, %13
  br i1 %14, label %15, label %23

15:                                               ; preds = %10
  %16 = load ptr, ptr %3, align 8
  %17 = load ptr, ptr %3, align 8
  %18 = load ptr, ptr %4, align 8
  %19 = load i32, ptr %5, align 4
  %20 = call i32 @Vec_IntEntry(ptr noundef %18, i32 noundef %19)
  %21 = call i32 @Acb_NtkCo(ptr noundef %17, i32 noundef %20)
  %22 = call i32 @Acb_ObjFanin(ptr noundef %16, i32 noundef %21, i32 noundef 0)
  store i32 %22, ptr %6, align 4
  br label %23

23:                                               ; preds = %15, %10
  %24 = phi i1 [ false, %10 ], [ true, %15 ]
  br i1 %24, label %25, label %32

25:                                               ; preds = %23
  %26 = load ptr, ptr %3, align 8
  %27 = load i32, ptr %6, align 4
  %28 = load ptr, ptr %7, align 8
  call void @Acb_NtkFindSupp_rec(ptr noundef %26, i32 noundef %27, ptr noundef %28)
  br label %29

29:                                               ; preds = %25
  %30 = load i32, ptr %5, align 4
  %31 = add nsw i32 %30, 1
  store i32 %31, ptr %5, align 4
  br label %10, !llvm.loop !49

32:                                               ; preds = %23
  %33 = load ptr, ptr %7, align 8
  call void @Vec_IntSort(ptr noundef %33, i32 noundef 0)
  %34 = load ptr, ptr %7, align 8
  ret ptr %34
}