; Function Attrs: nounwind uwtable
define noalias noundef ptr @Acb_NtkFindSupp(ptr noundef captures(none) %0, ptr noundef readonly captures(none) %1) local_unnamed_addr #0 {
  %3 = tail call noalias dereferenceable_or_null(16) ptr @malloc(i64 noundef 16) #29
  %4 = getelementptr inbounds nuw i8, ptr %3, i64 4
  store i32 0, ptr %4, align 4
  store i32 1000, ptr %3, align 8
  %5 = tail call noalias dereferenceable_or_null(4000) ptr @malloc(i64 noundef 4000) #29
  %6 = getelementptr inbounds nuw i8, ptr %3, i64 8
  store ptr %5, ptr %6, align 8
  %7 = getelementptr i8, ptr %0, i64 260
  %.val.i = load i32, ptr %7, align 4
  %8 = icmp slt i32 %.val.i, 1
  br i1 %8, label %9, label %Acb_NtkIncTravId.exit

9:                                                ; preds = %2
  %10 = getelementptr inbounds nuw i8, ptr %0, i64 256
  %11 = getelementptr inbounds nuw i8, ptr %0, i64 112
  %.val.i.i = load i32, ptr %11, align 8
  %12 = load i32, ptr %10, align 8
  %.not.i.i.i.i = icmp slt i32 %12, %.val.i.i
  br i1 %.not.i.i.i.i, label %13, label %Vec_IntGrow.exit.i.i.i

13:                                               ; preds = %9
  %14 = getelementptr inbounds nuw i8, ptr %0, i64 264
  %15 = load ptr, ptr %14, align 8
  %.not9.i.i.i.i = icmp eq ptr %15, null
  %16 = sext i32 %.val.i.i to i64
  %17 = shl nsw i64 %16, 2
  br i1 %.not9.i.i.i.i, label %20, label %18

18:                                               ; preds = %13
  %19 = tail call ptr @realloc(ptr noundef nonnull %15, i64 noundef %17) #30
  br label %22

20:                                               ; preds = %13
  %21 = tail call noalias ptr @malloc(i64 noundef %17) #29
  br label %22

22:                                               ; preds = %20, %18
  %23 = phi ptr [ %19, %18 ], [ %21, %20 ]
  store ptr %23, ptr %14, align 8
  store i32 %.val.i.i, ptr %10, align 8
  br label %Vec_IntGrow.exit.i.i.i

Vec_IntGrow.exit.i.i.i:                           ; preds = %22, %9
  %24 = icmp sgt i32 %.val.i.i, 0
  br i1 %24, label %.lr.ph.i.i.i, label %Acb_NtkCleanObjTravs.exit.i

.lr.ph.i.i.i:                                     ; preds = %Vec_IntGrow.exit.i.i.i
  %25 = getelementptr inbounds nuw i8, ptr %0, i64 264
  %wide.trip.count.i.i.i = zext nneg i32 %.val.i.i to i64
  br label %26

26:                                               ; preds = %26, %.lr.ph.i.i.i
  %indvars.iv.i.i.i = phi i64 [ 0, %.lr.ph.i.i.i ], [ %indvars.iv.next.i.i.i, %26 ]
  %27 = load ptr, ptr %25, align 8
  %28 = getelementptr inbounds nuw i32, ptr %27, i64 %indvars.iv.i.i.i
  store i32 0, ptr %28, align 4
  %indvars.iv.next.i.i.i = add nuw nsw i64 %indvars.iv.i.i.i, 1
  %exitcond.not.i.i.i = icmp eq i64 %indvars.iv.next.i.i.i, %wide.trip.count.i.i.i
  br i1 %exitcond.not.i.i.i, label %Acb_NtkCleanObjTravs.exit.i, label %26, !llvm.loop !45

Acb_NtkCleanObjTravs.exit.i:                      ; preds = %26, %Vec_IntGrow.exit.i.i.i
  store i32 %.val.i.i, ptr %7, align 4
  br label %Acb_NtkIncTravId.exit

Acb_NtkIncTravId.exit:                            ; preds = %2, %Acb_NtkCleanObjTravs.exit.i
  %29 = getelementptr inbounds nuw i8, ptr %0, i64 96
  %30 = load i32, ptr %29, align 8
  %31 = add nsw i32 %30, 1
  store i32 %31, ptr %29, align 8
  %32 = getelementptr i8, ptr %1, i64 4
  %.val18 = load i32, ptr %32, align 4
  %33 = icmp sgt i32 %.val18, 0
  br i1 %33, label %.lr.ph, label %.critedge

.lr.ph:                                           ; preds = %Acb_NtkIncTravId.exit
  %34 = getelementptr i8, ptr %1, i64 8
  %35 = getelementptr i8, ptr %0, i64 48
  %36 = getelementptr i8, ptr %0, i64 136
  %37 = getelementptr i8, ptr %0, i64 152
  br label %38

38:                                               ; preds = %.lr.ph, %38
  %indvars.iv = phi i64 [ 0, %.lr.ph ], [ %indvars.iv.next, %38 ]
  %.val12 = load ptr, ptr %34, align 8
  %39 = getelementptr inbounds nuw i32, ptr %.val12, i64 %indvars.iv
  %40 = load i32, ptr %39, align 4
  %.val13 = load ptr, ptr %35, align 8
  %41 = sext i32 %40 to i64
  %42 = getelementptr inbounds i32, ptr %.val13, i64 %41
  %43 = load i32, ptr %42, align 4
  %.val14 = load ptr, ptr %36, align 8
  %.val15 = load ptr, ptr %37, align 8
  %44 = sext i32 %43 to i64
  %45 = getelementptr inbounds i32, ptr %.val14, i64 %44
  %46 = load i32, ptr %45, align 4
  %47 = sext i32 %46 to i64
  %48 = getelementptr inbounds i32, ptr %.val15, i64 %47
  %49 = getelementptr inbounds nuw i8, ptr %48, i64 4
  %50 = load i32, ptr %49, align 4
  tail call void @Acb_NtkFindSupp_rec(ptr noundef nonnull %0, i32 noundef %50, ptr noundef nonnull %3)
  %indvars.iv.next = add nuw nsw i64 %indvars.iv, 1
  %.val = load i32, ptr %32, align 4
  %51 = sext i32 %.val to i64
  %52 = icmp slt i64 %indvars.iv.next, %51
  br i1 %52, label %38, label %.critedge.loopexit, !llvm.loop !51

.critedge.loopexit:                               ; preds = %38
  %.val16.pre = load i32, ptr %4, align 4
  %.val17.pre = load ptr, ptr %6, align 8
  %53 = sext i32 %.val16.pre to i64
  br label %.critedge

.critedge:                                        ; preds = %.critedge.loopexit, %Acb_NtkIncTravId.exit
  %.val17 = phi ptr [ %.val17.pre, %.critedge.loopexit ], [ %5, %Acb_NtkIncTravId.exit ]
  %.val16 = phi i64 [ %53, %.critedge.loopexit ], [ 0, %Acb_NtkIncTravId.exit ]
  tail call void @qsort(ptr noundef %.val17, i64 noundef %.val16, i64 noundef 4, ptr noundef nonnull @Vec_IntSortCompare1) #31
  ret ptr %3
}